target datalayout = "e-m:e-p270:32:32-p271:32:32-p272:64:64-i64:64-i128:128-f80:128-n8:16:32:64-S128"
target triple = "x86_64-pc-linux-gnu"

%struct.ForeignScanState = type { %struct.ScanState, ptr, i64, ptr, ptr, ptr }
%struct.ScanState = type { %struct.PlanState, ptr, ptr, ptr }
%struct.PlanState = type { i32, ptr, ptr, ptr, ptr, ptr, ptr, ptr, ptr, ptr, ptr, ptr, ptr, ptr, ptr, ptr, ptr, ptr, i8, ptr, ptr, ptr, ptr, ptr, i8, i8, i8, i8, i8, i8, i8, i8 }
%struct.FdwRoutine = type { i32, ptr, ptr, ptr, ptr, ptr, ptr, ptr, ptr, ptr, ptr, ptr, ptr, ptr, ptr, ptr, ptr, ptr, ptr, ptr, ptr, ptr, ptr, ptr, ptr, ptr, ptr, ptr, ptr, ptr, ptr, ptr, ptr, ptr, ptr, ptr, ptr, ptr, ptr, ptr, ptr, ptr, ptr, ptr, ptr, ptr }
%struct.ExprContext = type { i32, ptr, ptr, ptr, ptr, ptr, ptr, ptr, ptr, ptr, i64, i8, i64, i8, ptr, ptr, ptr, ptr }
%struct.ExprState = type { i32, i8, i8, i64, ptr, ptr, ptr, ptr, ptr, i32, i32, ptr, ptr, ptr, ptr, ptr, ptr, ptr }

@CurrentMemoryContext = external global ptr, align 8

; Function Attrs: inlinehint nounwind uwtable
define internal ptr @MemoryContextSwitchTo(ptr noundef %0) #2 {
  %2 = alloca ptr, align 8
  %3 = alloca ptr, align 8
  store ptr %0, ptr %2, align 8
  call void @llvm.lifetime.start.p0(i64 8, ptr %3) #5
  %4 = load ptr, ptr @CurrentMemoryContext, align 8
  store ptr %4, ptr %3, align 8
  %5 = load ptr, ptr %2, align 8
  store ptr %5, ptr @CurrentMemoryContext, align 8
  %6 = load ptr, ptr %3, align 8
  call void @llvm.lifetime.end.p0(i64 8, ptr %3) #5
  ret ptr %6
}

; Function Attrs: inlinehint nounwind uwtable
define internal zeroext i1 @DatumGetBool(i64 noundef %0) #2 {
  %2 = alloca i64, align 8
  store i64 %0, ptr %2, align 8
  %3 = load i64, ptr %2, align 8
  %4 = icmp ne i64 %3, 0
  ret i1 %4
}

; Function Attrs: inlinehint nounwind uwtable
define internal i64 @ExecEvalExprSwitchContext(ptr noundef %0, ptr noundef %1, ptr noundef %2) #2 {
  %4 = alloca ptr, align 8
  %5 = alloca ptr, align 8
  %6 = alloca ptr, align 8
  %7 = alloca i64, align 8
  %8 = alloca ptr, align 8
  store ptr %0, ptr %4, align 8
  store ptr %1, ptr %5, align 8
  store ptr %2, ptr %6, align 8
  call void @llvm.lifetime.start.p0(i64 8, ptr %7) #5
  call void @llvm.lifetime.start.p0(i64 8, ptr %8) #5
  %9 = load ptr, ptr %5, align 8
  %10 = getelementptr inbounds nuw %struct.ExprContext, ptr %9, i32 0, i32 5
  %11 = load ptr, ptr %10, align 8
  %12 = call ptr @MemoryContextSwitchTo(ptr noundef %11)
  store ptr %12, ptr %8, align 8
  %13 = load ptr, ptr %4, align 8
  %14 = getelementptr inbounds nuw %struct.ExprState, ptr %13, i32 0, i32 6
  %15 = load ptr, ptr %14, align 8
  %16 = load ptr, ptr %4, align 8
  %17 = load ptr, ptr %5, align 8
  %18 = load ptr, ptr %6, align 8
  %19 = call i64 %15(ptr noundef %16, ptr noundef %17, ptr noundef %18)
  store i64 %19, ptr %7, align 8
  %20 = load ptr, ptr %8, align 8
  %21 = call ptr @MemoryContextSwitchTo(ptr noundef %20)
  %22 = load i64, ptr %7, align 8
  call void @llvm.lifetime.end.p0(i64 8, ptr %8) #5
  call void @llvm.lifetime.end.p0(i64 8, ptr %7) #5
  ret i64 %22
}

; Function Attrs: inlinehint nounwind uwtable
define internal zeroext i1 @ExecQual(ptr noundef %0, ptr noundef %1) #2 {
  %3 = alloca i1, align 1
  %4 = alloca ptr, align 8
  %5 = alloca ptr, align 8
  %6 = alloca i64, align 8
  %7 = alloca i8, align 1
  %8 = alloca i32, align 4
  store ptr %0, ptr %4, align 8
  store ptr %1, ptr %5, align 8
  call void @llvm.lifetime.start.p0(i64 8, ptr %6) #5
  call void @llvm.lifetime.start.p0(i64 1, ptr %7) #5
  %9 = load ptr, ptr %4, align 8
  %10 = icmp eq ptr %9, null
  br i1 %10, label %11, label %12

11:                                               ; preds = %2
  store i1 true, ptr %3, align 1
  store i32 1, ptr %8, align 4
  br label %18

12:                                               ; preds = %2
  %13 = load ptr, ptr %4, align 8
  %14 = load ptr, ptr %5, align 8
  %15 = call i64 @ExecEvalExprSwitchContext(ptr noundef %13, ptr noundef %14, ptr noundef %7)
  store i64 %15, ptr %6, align 8
  %16 = load i64, ptr %6, align 8
  %17 = call zeroext i1 @DatumGetBool(i64 noundef %16)
  store i1 %17, ptr %3, align 1
  store i32 1, ptr %8, align 4
  br label %18

18:                                               ; preds = %12, %11
  call void @llvm.lifetime.end.p0(i64 1, ptr %7) #5
  call void @llvm.lifetime.end.p0(i64 8, ptr %6) #5
  %19 = load i1, ptr %3, align 1
  ret i1 %19
}

; Function Attrs: nounwind uwtable
define internal zeroext i1 @ForeignRecheck(ptr noundef %0, ptr noundef %1) #0 {
  %3 = alloca i1, align 1
  %4 = alloca ptr, align 8
  %5 = alloca ptr, align 8
  %6 = alloca ptr, align 8
  %7 = alloca ptr, align 8
  %8 = alloca i32, align 4
  store ptr %0, ptr %4, align 8
  store ptr %1, ptr %5, align 8
  call void @llvm.lifetime.start.p0(i64 8, ptr %6) #5
  %9 = load ptr, ptr %4, align 8
  %10 = getelementptr inbounds nuw %struct.ForeignScanState, ptr %9, i32 0, i32 4
  %11 = load ptr, ptr %10, align 8
  store ptr %11, ptr %6, align 8
  call void @llvm.lifetime.start.p0(i64 8, ptr %7) #5
  %12 = load ptr, ptr %4, align 8
  %13 = getelementptr inbounds nuw %struct.ForeignScanState, ptr %12, i32 0, i32 0
  %14 = getelementptr inbounds nuw %struct.ScanState, ptr %13, i32 0, i32 0
  %15 = getelementptr inbounds nuw %struct.PlanState, ptr %14, i32 0, i32 16
  %16 = load ptr, ptr %15, align 8
  store ptr %16, ptr %7, align 8
  %17 = load ptr, ptr %5, align 8
  %18 = load ptr, ptr %7, align 8
  %19 = getelementptr inbounds nuw %struct.ExprContext, ptr %18, i32 0, i32 1
  store ptr %17, ptr %19, align 8
  %20 = load ptr, ptr %7, align 8
  %21 = getelementptr inbounds nuw %struct.ExprContext, ptr %20, i32 0, i32 5
  %22 = load ptr, ptr %21, align 8
  call void @MemoryContextReset(ptr noundef %22)
  %23 = load ptr, ptr %6, align 8
  %24 = getelementptr inbounds nuw %struct.FdwRoutine, ptr %23, i32 0, i32 28
  %25 = load ptr, ptr %24, align 8
  %26 = icmp ne ptr %25, null
  br i1 %26, label %27, label %35

27:                                               ; preds = %2
  %28 = load ptr, ptr %6, align 8
  %29 = getelementptr inbounds nuw %struct.FdwRoutine, ptr %28, i32 0, i32 28
  %30 = load ptr, ptr %29, align 8
  %31 = load ptr, ptr %4, align 8
  %32 = load ptr, ptr %5, align 8
  %33 = call zeroext i1 %30(ptr noundef %31, ptr noundef %32)
  br i1 %33, label %35, label %34

34:                                               ; preds = %27
  store i1 false, ptr %3, align 1
  store i32 1, ptr %8, align 4
  br label %41

35:                                               ; preds = %27, %2
  %36 = load ptr, ptr %4, align 8
  %37 = getelementptr inbounds nuw %struct.ForeignScanState, ptr %36, i32 0, i32 1
  %38 = load ptr, ptr %37, align 8
  %39 = load ptr, ptr %7, align 8
  %40 = call zeroext i1 @ExecQual(ptr noundef %38, ptr noundef %39)
  store i1 %40, ptr %3, align 1
  store i32 1, ptr %8, align 4
  br label %41

41:                                               ; preds = %35, %34
  call void @llvm.lifetime.end.p0(i64 8, ptr %7) #5
  call void @llvm.lifetime.end.p0(i64 8, ptr %6) #5
  %42 = load i1, ptr %3, align 1
  ret i1 %42
}