; Function Attrs: nounwind uwtable
define internal zeroext i1 @ForeignRecheck(ptr noundef %0, ptr noundef %1) #0 {
  %3 = alloca i8, align 1
  %4 = getelementptr inbounds nuw i8, ptr %0, i64 248
  %5 = load ptr, ptr %4, align 8
  %6 = getelementptr inbounds nuw i8, ptr %0, i64 128
  %7 = load ptr, ptr %6, align 8
  %8 = getelementptr inbounds nuw i8, ptr %7, i64 8
  store ptr %1, ptr %8, align 8
  %9 = getelementptr inbounds nuw i8, ptr %7, i64 40
  %10 = load ptr, ptr %9, align 8
  tail call void @MemoryContextReset(ptr noundef %10) #5
  %11 = getelementptr inbounds nuw i8, ptr %5, i64 224
  %12 = load ptr, ptr %11, align 8
  %.not = icmp eq ptr %12, null
  br i1 %.not, label %15, label %13

13:                                               ; preds = %2
  %14 = tail call zeroext i1 %12(ptr noundef nonnull %0, ptr noundef %1) #5
  br i1 %14, label %15, label %26

15:                                               ; preds = %13, %2
  %16 = getelementptr inbounds nuw i8, ptr %0, i64 224
  %17 = load ptr, ptr %16, align 8
  call void @llvm.lifetime.start.p0(i64 1, ptr nonnull %3) #5
  %18 = icmp eq ptr %17, null
  br i1 %18, label %ExecQual.exit, label %19

19:                                               ; preds = %15
  %20 = load ptr, ptr %9, align 8
  %21 = load ptr, ptr @CurrentMemoryContext, align 8
  store ptr %20, ptr @CurrentMemoryContext, align 8
  %22 = getelementptr inbounds nuw i8, ptr %17, i64 32
  %23 = load ptr, ptr %22, align 8
  %24 = call i64 %23(ptr noundef nonnull %17, ptr noundef nonnull %7, ptr noundef nonnull %3) #5
  store ptr %21, ptr @CurrentMemoryContext, align 8
  %25 = icmp ne i64 %24, 0
  br label %ExecQual.exit

ExecQual.exit:                                    ; preds = %15, %19
  %.0.i = phi i1 [ %25, %19 ], [ true, %15 ]
  call void @llvm.lifetime.end.p0(i64 1, ptr nonnull %3) #5
  br label %26

26:                                               ; preds = %13, %ExecQual.exit
  %.0 = phi i1 [ %.0.i, %ExecQual.exit ], [ false, %13 ]
  ret i1 %.0
}